; Function Attrs: mustprogress nounwind uwtable
define hidden void @_ZN14MacroAssembler7evpandqE11XMMRegisterS0_14AddressLiterali8Register(ptr noundef nonnull align 8 dereferenceable(40) %0, i32 %1, i32 %2, ptr noundef %3, i32 noundef %4, i32 %5) local_unnamed_addr #0 align 2 {
  %7 = alloca %class.AddressLiteral, align 8
  %8 = alloca %class.Address, align 8
  %9 = alloca %class.AddressLiteral, align 8
  %10 = alloca %class.AddressLiteral, align 8
  %11 = alloca %class.Address, align 8
  %12 = load ptr, ptr %3, align 8
  %13 = getelementptr inbounds i8, ptr %12, i64 16
  %14 = load ptr, ptr %13, align 8
  call void %14(ptr noundef nonnull align 8 dereferenceable(20) %3, ptr noundef nonnull align 8 dereferenceable(40) %7) #18
  %15 = getelementptr inbounds i8, ptr %7, i64 40
  %16 = getelementptr inbounds i8, ptr %3, i64 40
  call void @llvm.memcpy.p0.p0.i64(ptr noundef nonnull align 8 dereferenceable(16) %15, ptr noundef nonnull align 8 dereferenceable(16) %16, i64 16, i1 false)
  %17 = call noundef zeroext i1 @_ZN9Assembler9reachableE14AddressLiteral(ptr noundef nonnull align 8 dereferenceable(40) %0, ptr noundef nonnull %7) #18
  %18 = load ptr, ptr %3, align 8
  %19 = getelementptr inbounds i8, ptr %18, i64 16
  %20 = load ptr, ptr %19, align 8
  br i1 %17, label %21, label %35

21:                                               ; preds = %6
  call void %20(ptr noundef nonnull align 8 dereferenceable(20) %3, ptr noundef nonnull align 8 dereferenceable(40) %9) #18
  %22 = getelementptr inbounds i8, ptr %9, i64 40
  call void @llvm.memcpy.p0.p0.i64(ptr noundef nonnull align 8 dereferenceable(16) %22, ptr noundef nonnull align 8 dereferenceable(16) %16, i64 16, i1 false)
  %23 = getelementptr inbounds i8, ptr %9, i64 48
  %24 = load ptr, ptr %23, align 8, !noalias !417
  %25 = getelementptr inbounds i8, ptr %0, i64 8
  %26 = load ptr, ptr %25, align 8, !noalias !417
  %27 = getelementptr inbounds i8, ptr %26, i64 16
  %28 = load ptr, ptr %27, align 8, !noalias !417
  %29 = ptrtoint ptr %24 to i64
  %30 = ptrtoint ptr %28 to i64
  %31 = sub i64 %29, %30
  %32 = trunc i64 %31 to i32
  %33 = getelementptr inbounds i8, ptr %9, i64 16
  %34 = load i32, ptr %33, align 8, !noalias !417
  call void @_ZN7AddressC1EiPhN9relocInfo9relocTypeE(ptr noundef nonnull align 8 dereferenceable(64) %8, i32 noundef %32, ptr noundef %24, i32 noundef %34) #18
  br label %45

35:                                               ; preds = %6
  call void %20(ptr noundef nonnull align 8 dereferenceable(20) %3, ptr noundef nonnull align 8 dereferenceable(40) %10) #18
  %36 = getelementptr inbounds i8, ptr %10, i64 40
  call void @llvm.memcpy.p0.p0.i64(ptr noundef nonnull align 8 dereferenceable(16) %36, ptr noundef nonnull align 8 dereferenceable(16) %16, i64 16, i1 false)
  %37 = getelementptr inbounds i8, ptr %10, i64 48
  %38 = load ptr, ptr %37, align 8
  %39 = ptrtoint ptr %38 to i64
  call void @_ZN9Assembler13mov_literal64E8RegisterlRK16RelocationHolder(ptr noundef nonnull align 8 dereferenceable(40) %0, i32 %5, i64 noundef %39, ptr noundef nonnull align 8 dereferenceable(40) %10) #18
  store i32 %5, ptr %11, align 8
  %40 = getelementptr inbounds i8, ptr %11, i64 4
  store <4 x i32> <i32 -1, i32 -1, i32 -1, i32 0>, ptr %40, align 4
  %41 = getelementptr inbounds i8, ptr %11, i64 20
  store i8 0, ptr %41, align 4
  %42 = getelementptr inbounds i8, ptr %11, i64 24
  store ptr getelementptr inbounds inrange(-16, 72) (i8, ptr @_ZTV10Relocation, i64 16), ptr %42, align 8
  %43 = getelementptr inbounds i8, ptr %11, i64 32
  store ptr null, ptr %43, align 8
  %44 = getelementptr inbounds i8, ptr %11, i64 40
  store i32 0, ptr %44, align 8
  br label %45

45:                                               ; preds = %35, %21
  %.sink = phi ptr [ %11, %35 ], [ %8, %21 ]
  call void @_ZN9Assembler7evpandqE11XMMRegisterS0_7Addressi(ptr noundef nonnull align 8 dereferenceable(40) %0, i32 %1, i32 %2, ptr noundef nonnull %.sink, i32 noundef %4) #18
  ret void
}